; Function Attrs: mustprogress uwtable
define void @_ZN3nix11PackageInfo15queryMetaStringERKNSt7__cxx1112basic_stringIcSt11char_traitsIcESaIcEEE(ptr dead_on_unwind noalias writable sret(%"class.std::__cxx11::basic_string") align 8 %0, ptr noundef nonnull align 8 dereferenceable(296) %1, ptr nocapture noundef nonnull readonly align 8 dereferenceable(32) %2) local_unnamed_addr #5 align 2 personality ptr @__gxx_personality_v0 {
  %4 = alloca %"class.std::allocator", align 1
  %5 = alloca %"class.std::allocator", align 1
  %6 = tail call noundef ptr @_ZN3nix11PackageInfo9queryMetaERKNSt7__cxx1112basic_stringIcSt11char_traitsIcESaIcEEE(ptr noundef nonnull align 8 dereferenceable(296) %1, ptr noundef nonnull align 8 dereferenceable(32) %2)
  %.not = icmp eq ptr %6, null
  br i1 %.not, label %_ZNK3nix5Value4typeEb.exit.thread, label %7

7:                                                ; preds = %3
  %8 = load i32, ptr %6, align 8
  switch i32 %8, label %9 [
    i32 1, label %_ZNK3nix5Value4typeEb.exit.thread
    i32 2, label %_ZNK3nix5Value4typeEb.exit.thread
    i32 3, label %_ZNK3nix5Value4typeEb.exit
    i32 4, label %_ZNK3nix5Value4typeEb.exit.thread
    i32 5, label %_ZNK3nix5Value4typeEb.exit.thread
    i32 6, label %_ZNK3nix5Value4typeEb.exit.thread
    i32 7, label %_ZNK3nix5Value4typeEb.exit.thread
    i32 8, label %_ZNK3nix5Value4typeEb.exit.thread
    i32 9, label %_ZNK3nix5Value4typeEb.exit.thread
    i32 12, label %_ZNK3nix5Value4typeEb.exit.thread
    i32 13, label %_ZNK3nix5Value4typeEb.exit.thread
    i32 14, label %_ZNK3nix5Value4typeEb.exit.thread
    i32 15, label %_ZNK3nix5Value4typeEb.exit.thread
    i32 16, label %_ZNK3nix5Value4typeEb.exit.thread
    i32 10, label %_ZNK3nix5Value4typeEb.exit.thread
    i32 11, label %_ZNK3nix5Value4typeEb.exit.thread
  ]

9:                                                ; preds = %7
  tail call void @abort() #31
  unreachable

_ZNK3nix5Value4typeEb.exit.thread:                ; preds = %7, %7, %7, %7, %7, %7, %7, %7, %7, %7, %7, %7, %7, %7, %7, %3
  call void @_ZNSaIcEC1Ev(ptr noundef nonnull align 1 dereferenceable(1) %4) #28
  invoke void @_ZNSt7__cxx1112basic_stringIcSt11char_traitsIcESaIcEEC2IS3_EEPKcRKS3_(ptr noundef nonnull align 8 dereferenceable(32) %0, ptr noundef nonnull @.str, ptr noundef nonnull align 1 dereferenceable(1) %4)
          to label %16 unwind label %10

10:                                               ; preds = %_ZNK3nix5Value4typeEb.exit.thread
  %11 = landingpad { ptr, i32 }
          cleanup
  br label %17

_ZNK3nix5Value4typeEb.exit:                       ; preds = %7
  %12 = getelementptr inbounds i8, ptr %6, i64 8
  %13 = load ptr, ptr %12, align 8
  call void @_ZNSaIcEC1Ev(ptr noundef nonnull align 1 dereferenceable(1) %5) #28
  invoke void @_ZNSt7__cxx1112basic_stringIcSt11char_traitsIcESaIcEEC2IS3_EEPKcRKS3_(ptr noundef nonnull align 8 dereferenceable(32) %0, ptr noundef %13, ptr noundef nonnull align 1 dereferenceable(1) %5)
          to label %16 unwind label %14

14:                                               ; preds = %_ZNK3nix5Value4typeEb.exit
  %15 = landingpad { ptr, i32 }
          cleanup
  br label %17

16:                                               ; preds = %_ZNK3nix5Value4typeEb.exit, %_ZNK3nix5Value4typeEb.exit.thread
  %.sink = phi ptr [ %4, %_ZNK3nix5Value4typeEb.exit.thread ], [ %5, %_ZNK3nix5Value4typeEb.exit ]
  call void @_ZNSaIcED1Ev(ptr noundef nonnull align 1 dereferenceable(1) %.sink) #28
  ret void

17:                                               ; preds = %14, %10
  %.sink12 = phi ptr [ %5, %14 ], [ %4, %10 ]
  %.pn = phi { ptr, i32 } [ %15, %14 ], [ %11, %10 ]
  call void @_ZNSaIcED1Ev(ptr noundef nonnull align 1 dereferenceable(1) %.sink12) #28
  resume { ptr, i32 } %.pn
}